target datalayout = "e-m:e-p270:32:32-p271:32:32-p272:64:64-i64:64-i128:128-f80:128-n8:16:32:64-S128"
target triple = "x86_64-pc-linux-gnu"

%struct.ossl_quic_tx_packetiser_st = type { %struct.ossl_quic_tx_packetiser_args_st, ptr, i64, ptr, ptr, %struct.quic_fifd_st, [3 x i64], %struct.OSSL_TIME, i64, i16, %struct.ossl_quic_frame_conn_close_st, i64, i64, [4 x %struct.txp_el], ptr, ptr, ptr, ptr, ptr }
%struct.ossl_quic_tx_packetiser_args_st = type { %struct.quic_conn_id_st, %struct.quic_conn_id_st, %union.bio_addr_st, i32, ptr, ptr, ptr, ptr, ptr, ptr, ptr, ptr, ptr, ptr, ptr, ptr, ptr, ptr, ptr, i32, [3 x ptr] }
%struct.quic_conn_id_st = type { i8, [20 x i8] }
%union.bio_addr_st = type { %struct.sockaddr_in6, [84 x i8] }
%struct.sockaddr_in6 = type { i16, i16, i32, %struct.in6_addr, i32 }
%struct.in6_addr = type { %union.anon }
%union.anon = type { [4 x i32] }
%struct.quic_fifd_st = type { ptr, ptr, ptr, ptr, ptr, ptr, ptr, ptr, ptr, ptr, ptr, ptr, ptr }
%struct.OSSL_TIME = type { i64 }
%struct.ossl_quic_frame_conn_close_st = type { i8, i64, i64, ptr, i64 }
%struct.txp_el = type { ptr, i64, ptr, i64 }

@.str = private unnamed_addr constant [31 x i8] c"../openssl/ssl/quic/quic_txp.c\00", align 1

; Function Attrs: nounwind uwtable
define internal i64 @txp_get_mdpl(ptr noundef %0) #0 {
  %2 = alloca ptr, align 8
  store ptr %0, ptr %2, align 8, !tbaa !3
  %3 = load ptr, ptr %2, align 8, !tbaa !3
  %4 = getelementptr inbounds nuw %struct.ossl_quic_tx_packetiser_st, ptr %3, i32 0, i32 0
  %5 = getelementptr inbounds nuw %struct.ossl_quic_tx_packetiser_args_st, ptr %4, i32 0, i32 4
  %6 = load ptr, ptr %5, align 8, !tbaa !86
  %7 = call i64 @ossl_qtx_get_mdpl(ptr noundef %6)
  ret i64 %7
}

; Function Attrs: nounwind uwtable
define i32 @ossl_quic_tx_packetiser_schedule_conn_close(ptr noundef %0, ptr noundef %1) #0 {
  %3 = alloca i32, align 4
  %4 = alloca ptr, align 8
  %5 = alloca ptr, align 8
  %6 = alloca ptr, align 8
  %7 = alloca i64, align 8
  %8 = alloca i64, align 8
  %9 = alloca i32, align 4
  store ptr %0, ptr %4, align 8, !tbaa !3
  store ptr %1, ptr %5, align 8, !tbaa !186
  call void @llvm.lifetime.start.p0(i64 8, ptr %6) #7
  store ptr null, ptr %6, align 8, !tbaa !81
  call void @llvm.lifetime.start.p0(i64 8, ptr %7) #7
  %10 = load ptr, ptr %5, align 8, !tbaa !186
  %11 = getelementptr inbounds nuw %struct.ossl_quic_frame_conn_close_st, ptr %10, i32 0, i32 4
  %12 = load i64, ptr %11, align 8, !tbaa !188
  store i64 %12, ptr %7, align 8, !tbaa !28
  call void @llvm.lifetime.start.p0(i64 8, ptr %8) #7
  %13 = load ptr, ptr %4, align 8, !tbaa !3
  %14 = call i64 @txp_get_mdpl(ptr noundef %13)
  %15 = udiv i64 %14, 2
  store i64 %15, ptr %8, align 8, !tbaa !28
  %16 = load ptr, ptr %4, align 8, !tbaa !3
  %17 = getelementptr inbounds nuw %struct.ossl_quic_tx_packetiser_st, ptr %16, i32 0, i32 9
  %18 = load i16, ptr %17, align 8
  %19 = lshr i16 %18, 10
  %20 = and i16 %19, 1
  %21 = zext i16 %20 to i32
  %22 = icmp ne i32 %21, 0
  br i1 %22, label %23, label %24

23:                                               ; preds = %2
  store i32 0, ptr %3, align 4
  store i32 1, ptr %9, align 4
  br label %60

24:                                               ; preds = %2
  %25 = load i64, ptr %7, align 8, !tbaa !28
  %26 = load i64, ptr %8, align 8, !tbaa !28
  %27 = icmp ugt i64 %25, %26
  br i1 %27, label %28, label %30

28:                                               ; preds = %24
  %29 = load i64, ptr %8, align 8, !tbaa !28
  store i64 %29, ptr %7, align 8, !tbaa !28
  br label %30

30:                                               ; preds = %28, %24
  %31 = load i64, ptr %7, align 8, !tbaa !28
  %32 = icmp ugt i64 %31, 0
  br i1 %32, label %33, label %43

33:                                               ; preds = %30
  %34 = load ptr, ptr %5, align 8, !tbaa !186
  %35 = getelementptr inbounds nuw %struct.ossl_quic_frame_conn_close_st, ptr %34, i32 0, i32 3
  %36 = load ptr, ptr %35, align 8, !tbaa !189
  %37 = load i64, ptr %7, align 8, !tbaa !28
  %38 = call noalias ptr @CRYPTO_memdup(ptr noundef %36, i64 noundef %37, ptr noundef @.str, i32 noundef 3191)
  store ptr %38, ptr %6, align 8, !tbaa !81
  %39 = load ptr, ptr %6, align 8, !tbaa !81
  %40 = icmp eq ptr %39, null
  br i1 %40, label %41, label %42

41:                                               ; preds = %33
  store i32 0, ptr %3, align 4
  store i32 1, ptr %9, align 4
  br label %60

42:                                               ; preds = %33
  br label %43

43:                                               ; preds = %42, %30
  %44 = load ptr, ptr %4, align 8, !tbaa !3
  %45 = getelementptr inbounds nuw %struct.ossl_quic_tx_packetiser_st, ptr %44, i32 0, i32 10
  %46 = load ptr, ptr %5, align 8, !tbaa !186
  call void @llvm.memcpy.p0.p0.i64(ptr align 8 %45, ptr align 8 %46, i64 40, i1 false), !tbaa.struct !190
  %47 = load ptr, ptr %6, align 8, !tbaa !81
  %48 = load ptr, ptr %4, align 8, !tbaa !3
  %49 = getelementptr inbounds nuw %struct.ossl_quic_tx_packetiser_st, ptr %48, i32 0, i32 10
  %50 = getelementptr inbounds nuw %struct.ossl_quic_frame_conn_close_st, ptr %49, i32 0, i32 3
  store ptr %47, ptr %50, align 8, !tbaa !74
  %51 = load i64, ptr %7, align 8, !tbaa !28
  %52 = load ptr, ptr %4, align 8, !tbaa !3
  %53 = getelementptr inbounds nuw %struct.ossl_quic_tx_packetiser_st, ptr %52, i32 0, i32 10
  %54 = getelementptr inbounds nuw %struct.ossl_quic_frame_conn_close_st, ptr %53, i32 0, i32 4
  store i64 %51, ptr %54, align 8, !tbaa !191
  %55 = load ptr, ptr %4, align 8, !tbaa !3
  %56 = getelementptr inbounds nuw %struct.ossl_quic_tx_packetiser_st, ptr %55, i32 0, i32 9
  %57 = load i16, ptr %56, align 8
  %58 = and i16 %57, -1025
  %59 = or i16 %58, 1024
  store i16 %59, ptr %56, align 8
  store i32 1, ptr %3, align 4
  store i32 1, ptr %9, align 4
  br label %60

60:                                               ; preds = %43, %41, %23
  call void @llvm.lifetime.end.p0(i64 8, ptr %8) #7
  call void @llvm.lifetime.end.p0(i64 8, ptr %7) #7
  call void @llvm.lifetime.end.p0(i64 8, ptr %6) #7
  %61 = load i32, ptr %3, align 4
  ret i32 %61
}