; Function Attrs: nounwind uwtable
define range(i32 0, 2) i32 @ossl_quic_tx_packetiser_schedule_conn_close(ptr noundef captures(none) %0, ptr noundef readonly captures(none) %1) local_unnamed_addr #3 {
  %3 = getelementptr inbounds nuw i8, ptr %1, i64 32
  %4 = load i64, ptr %3, align 8, !tbaa !210
  %5 = getelementptr i8, ptr %0, i64 160
  %.val = load ptr, ptr %5, align 8, !tbaa !66
  %6 = tail call i64 @ossl_qtx_get_mdpl(ptr noundef %.val) #10
  %7 = getelementptr inbounds nuw i8, ptr %0, i64 488
  %8 = load i16, ptr %7, align 8
  %9 = and i16 %8, 1024
  %.not = icmp eq i16 %9, 0
  br i1 %.not, label %10, label %23

10:                                               ; preds = %2
  %11 = lshr i64 %6, 1
  %spec.select = tail call i64 @llvm.umin.i64(i64 %4, i64 %11)
  %.not22 = icmp eq i64 %spec.select, 0
  br i1 %.not22, label %17, label %12

12:                                               ; preds = %10
  %13 = getelementptr inbounds nuw i8, ptr %1, i64 24
  %14 = load ptr, ptr %13, align 8, !tbaa !211
  %15 = tail call noalias ptr @CRYPTO_memdup(ptr noundef %14, i64 noundef %spec.select, ptr noundef nonnull @.str, i32 noundef 3191) #10
  %16 = icmp eq ptr %15, null
  br i1 %16, label %23, label %._crit_edge

._crit_edge:                                      ; preds = %12
  %.pre = load i16, ptr %7, align 8
  br label %17

17:                                               ; preds = %._crit_edge, %10
  %18 = phi i16 [ %.pre, %._crit_edge ], [ %8, %10 ]
  %.018 = phi ptr [ %15, %._crit_edge ], [ null, %10 ]
  %19 = getelementptr inbounds nuw i8, ptr %0, i64 496
  tail call void @llvm.memcpy.p0.p0.i64(ptr noundef nonnull align 8 dereferenceable(40) %19, ptr noundef nonnull align 8 dereferenceable(40) %1, i64 24, i1 false), !tbaa.struct !212
  %20 = getelementptr inbounds nuw i8, ptr %0, i64 520
  store ptr %.018, ptr %20, align 8, !tbaa !71
  %21 = getelementptr inbounds nuw i8, ptr %0, i64 528
  store i64 %spec.select, ptr %21, align 8, !tbaa !214
  %22 = or i16 %18, 1024
  store i16 %22, ptr %7, align 8
  br label %23

23:                                               ; preds = %12, %2, %17
  %.0 = phi i32 [ 1, %17 ], [ 0, %2 ], [ 0, %12 ]
  ret i32 %.0
}